target datalayout = "e-m:e-p270:32:32-p271:32:32-p272:64:64-i64:64-i128:128-f80:128-n8:16:32:64-S128"
target triple = "x86_64-pc-linux-gnu"

%"struct.Luau::FValue" = type { i8, i8, ptr, ptr }
%"struct.Luau::CodeGen::A64::RegisterA64" = type { i8 }
%"struct.Luau::CodeGen::A64::IrRegAllocA64" = type <{ ptr, ptr, %"struct.Luau::CodeGen::A64::IrRegAllocA64::Set", %"struct.Luau::CodeGen::A64::IrRegAllocA64::Set", %"class.std::vector", i32, i8, [3 x i8] }>
%"struct.Luau::CodeGen::A64::IrRegAllocA64::Set" = type { i32, i32, i32, [32 x i32] }
%"class.std::vector" = type { %"struct.std::_Vector_base" }
%"struct.std::_Vector_base" = type { %"struct.std::_Vector_base<Luau::CodeGen::A64::IrRegAllocA64::Spill, std::allocator<Luau::CodeGen::A64::IrRegAllocA64::Spill>>::_Vector_impl" }
%"struct.std::_Vector_base<Luau::CodeGen::A64::IrRegAllocA64::Spill, std::allocator<Luau::CodeGen::A64::IrRegAllocA64::Spill>>::_Vector_impl" = type { %"struct.std::_Vector_base<Luau::CodeGen::A64::IrRegAllocA64::Spill, std::allocator<Luau::CodeGen::A64::IrRegAllocA64::Spill>>::_Vector_impl_data" }
%"struct.std::_Vector_base<Luau::CodeGen::A64::IrRegAllocA64::Spill, std::allocator<Luau::CodeGen::A64::IrRegAllocA64::Spill>>::_Vector_impl_data" = type { ptr, ptr, ptr }

@_ZN5FFlag20DebugCodegenChaosA64E = dso_local global %"struct.Luau::FValue" zeroinitializer, align 8

; Function Attrs: inlinehint mustprogress nounwind uwtable
define linkonce_odr dso_local noundef i32 @_ZN4Luau7CodeGen7countrzEj(i32 noundef %0) #3 comdat {
  %2 = alloca i32, align 4
  store i32 %0, ptr %2, align 4, !tbaa !43
  %3 = load i32, ptr %2, align 4, !tbaa !43
  %4 = icmp eq i32 %3, 0
  br i1 %4, label %5, label %6

5:                                                ; preds = %1
  br label %9

6:                                                ; preds = %1
  %7 = load i32, ptr %2, align 4, !tbaa !43
  %8 = call i32 @llvm.cttz.i32(i32 %7, i1 true)
  br label %9

9:                                                ; preds = %6, %5
  %10 = phi i32 [ 32, %5 ], [ %8, %6 ]
  ret i32 %10
}

; Function Attrs: alwaysinline mustprogress nounwind uwtable
define linkonce_odr dso_local noundef zeroext i1 @_ZNK4Luau6FValueIbEcvbEv(ptr noundef nonnull align 8 dereferenceable(24) %0) #6 comdat align 2 {
  %2 = alloca ptr, align 8
  store ptr %0, ptr %2, align 8, !tbaa !4
  %3 = load ptr, ptr %2, align 8
  %4 = getelementptr inbounds nuw %"struct.Luau::FValue", ptr %3, i32 0, i32 0
  %5 = load i8, ptr %4, align 8, !tbaa !15, !range !13, !noundef !14
  %6 = trunc i8 %5 to i1
  ret i1 %6
}

; Function Attrs: inlinehint mustprogress nounwind uwtable
define linkonce_odr dso_local noundef i32 @_ZN4Luau7CodeGen7countlzEj(i32 noundef %0) #3 comdat {
  %2 = alloca i32, align 4
  store i32 %0, ptr %2, align 4, !tbaa !43
  %3 = load i32, ptr %2, align 4, !tbaa !43
  %4 = icmp eq i32 %3, 0
  br i1 %4, label %5, label %6

5:                                                ; preds = %1
  br label %9

6:                                                ; preds = %1
  %7 = load i32, ptr %2, align 4, !tbaa !43
  %8 = call i32 @llvm.ctlz.i32(i32 %7, i1 true)
  br label %9

9:                                                ; preds = %6, %5
  %10 = phi i32 [ 32, %5 ], [ %8, %6 ]
  ret i32 %10
}

; Function Attrs: mustprogress nounwind uwtable
define dso_local noundef nonnull align 4 dereferenceable(140) ptr @_ZN4Luau7CodeGen3A6413IrRegAllocA646getSetENS1_7KindA64E(ptr noundef nonnull align 8 dereferenceable(325) %0, i8 noundef zeroext %1) #1 align 2 {
  %3 = alloca ptr, align 8
  %4 = alloca ptr, align 8
  %5 = alloca i8, align 1
  store ptr %0, ptr %4, align 8, !tbaa !20
  store i8 %1, ptr %5, align 1, !tbaa !58
  %6 = load ptr, ptr %4, align 8
  %7 = load i8, ptr %5, align 1, !tbaa !58
  switch i8 %7, label %12 [
    i8 2, label %8
    i8 1, label %8
    i8 3, label %10
    i8 4, label %10
    i8 5, label %10
  ]

8:                                                ; preds = %2, %2
  %9 = getelementptr inbounds nuw %"struct.Luau::CodeGen::A64::IrRegAllocA64", ptr %6, i32 0, i32 2
  store ptr %9, ptr %3, align 8
  br label %13

10:                                               ; preds = %2, %2, %2
  %11 = getelementptr inbounds nuw %"struct.Luau::CodeGen::A64::IrRegAllocA64", ptr %6, i32 0, i32 3
  store ptr %11, ptr %3, align 8
  br label %13

12:                                               ; preds = %2
  unreachable

13:                                               ; preds = %10, %8
  %14 = load ptr, ptr %3, align 8
  ret ptr %14
}

; Function Attrs: mustprogress uwtable
define dso_local i8 @_ZN4Luau7CodeGen3A6413IrRegAllocA649allocTempENS1_7KindA64E(ptr noundef nonnull align 8 dereferenceable(325) %0, i8 noundef zeroext %1) #2 align 2 {
  %3 = alloca %"struct.Luau::CodeGen::A64::RegisterA64", align 1
  %4 = alloca ptr, align 8
  %5 = alloca i8, align 1
  %6 = alloca ptr, align 8
  %7 = alloca i32, align 4
  %8 = alloca i32, align 4
  store ptr %0, ptr %4, align 8, !tbaa !20
  store i8 %1, ptr %5, align 1, !tbaa !58
  %9 = load ptr, ptr %4, align 8
  call void @llvm.lifetime.start.p0(i64 8, ptr %6) #16
  %10 = load i8, ptr %5, align 1, !tbaa !58
  %11 = call noundef nonnull align 4 dereferenceable(140) ptr @_ZN4Luau7CodeGen3A6413IrRegAllocA646getSetENS1_7KindA64E(ptr noundef nonnull align 8 dereferenceable(325) %9, i8 noundef zeroext %10)
  store ptr %11, ptr %6, align 8, !tbaa !41
  %12 = load ptr, ptr %6, align 8, !tbaa !41
  %13 = getelementptr inbounds nuw %"struct.Luau::CodeGen::A64::IrRegAllocA64::Set", ptr %12, i32 0, i32 1
  %14 = load i32, ptr %13, align 4, !tbaa !51
  %15 = icmp eq i32 %14, 0
  br i1 %15, label %16, label %26

16:                                               ; preds = %2
  %17 = getelementptr inbounds nuw %"struct.Luau::CodeGen::A64::IrRegAllocA64", ptr %9, i32 0, i32 6
  store i8 1, ptr %17, align 4, !tbaa !36
  %18 = load i8, ptr %5, align 1, !tbaa !58
  %19 = load i8, ptr %3, align 1
  %20 = and i8 %18, 7
  %21 = and i8 %19, -8
  %22 = or i8 %21, %20
  store i8 %22, ptr %3, align 1
  %23 = load i8, ptr %3, align 1
  %24 = and i8 %23, 7
  %25 = or i8 %24, 0
  store i8 %25, ptr %3, align 1
  store i32 1, ptr %7, align 4
  br label %64

26:                                               ; preds = %2
  call void @llvm.lifetime.start.p0(i64 4, ptr %8) #16
  %27 = load ptr, ptr %6, align 8, !tbaa !41
  %28 = getelementptr inbounds nuw %"struct.Luau::CodeGen::A64::IrRegAllocA64::Set", ptr %27, i32 0, i32 1
  %29 = load i32, ptr %28, align 4, !tbaa !51
  %30 = call noundef i32 @_ZN4Luau7CodeGen7countlzEj(i32 noundef %29)
  %31 = sub nsw i32 31, %30
  store i32 %31, ptr %8, align 4, !tbaa !43
  %32 = call noundef zeroext i1 @_ZNK4Luau6FValueIbEcvbEv(ptr noundef nonnull align 8 dereferenceable(24) @_ZN5FFlag20DebugCodegenChaosA64E)
  br i1 %32, label %33, label %38

33:                                               ; preds = %26
  %34 = load ptr, ptr %6, align 8, !tbaa !41
  %35 = getelementptr inbounds nuw %"struct.Luau::CodeGen::A64::IrRegAllocA64::Set", ptr %34, i32 0, i32 1
  %36 = load i32, ptr %35, align 4, !tbaa !51
  %37 = call noundef i32 @_ZN4Luau7CodeGen7countrzEj(i32 noundef %36)
  store i32 %37, ptr %8, align 4, !tbaa !43
  br label %38

38:                                               ; preds = %33, %26
  %39 = load i32, ptr %8, align 4, !tbaa !43
  %40 = shl i32 1, %39
  %41 = xor i32 %40, -1
  %42 = load ptr, ptr %6, align 8, !tbaa !41
  %43 = getelementptr inbounds nuw %"struct.Luau::CodeGen::A64::IrRegAllocA64::Set", ptr %42, i32 0, i32 1
  %44 = load i32, ptr %43, align 4, !tbaa !51
  %45 = and i32 %44, %41
  store i32 %45, ptr %43, align 4, !tbaa !51
  %46 = load i32, ptr %8, align 4, !tbaa !43
  %47 = shl i32 1, %46
  %48 = load ptr, ptr %6, align 8, !tbaa !41
  %49 = getelementptr inbounds nuw %"struct.Luau::CodeGen::A64::IrRegAllocA64::Set", ptr %48, i32 0, i32 2
  %50 = load i32, ptr %49, align 4, !tbaa !52
  %51 = or i32 %50, %47
  store i32 %51, ptr %49, align 4, !tbaa !52
  %52 = load i8, ptr %5, align 1, !tbaa !58
  %53 = load i8, ptr %3, align 1
  %54 = and i8 %52, 7
  %55 = and i8 %53, -8
  %56 = or i8 %55, %54
  store i8 %56, ptr %3, align 1
  %57 = load i32, ptr %8, align 4, !tbaa !43
  %58 = trunc i32 %57 to i8
  %59 = load i8, ptr %3, align 1
  %60 = and i8 %58, 31
  %61 = shl i8 %60, 3
  %62 = and i8 %59, 7
  %63 = or i8 %62, %61
  store i8 %63, ptr %3, align 1
  store i32 1, ptr %7, align 4
  call void @llvm.lifetime.end.p0(i64 4, ptr %8) #16
  br label %64

64:                                               ; preds = %38, %16
  call void @llvm.lifetime.end.p0(i64 8, ptr %6) #16
  %65 = getelementptr inbounds nuw %"struct.Luau::CodeGen::A64::RegisterA64", ptr %3, i32 0, i32 0
  %66 = load i8, ptr %65, align 1
  ret i8 %66
}