; Function Attrs: mustprogress nofree norecurse nosync nounwind willreturn memory(read, argmem: readwrite, inaccessiblemem: none) uwtable
define dso_local i8 @_ZN4Luau7CodeGen3A6413IrRegAllocA649allocTempENS1_7KindA64E(ptr noundef nonnull align 8 captures(none) dereferenceable(325) %0, i8 noundef zeroext %1) local_unnamed_addr #3 align 2 {
  %.off.i = add i8 %1, -1
  %switch.i = icmp ult i8 %.off.i, 2
  %.0.v.i = select i1 %switch.i, i64 16, i64 156
  %.0.i = getelementptr inbounds nuw i8, ptr %0, i64 %.0.v.i
  %3 = getelementptr inbounds nuw i8, ptr %.0.i, i64 4
  %4 = load i32, ptr %3, align 4, !tbaa !21
  %5 = icmp eq i32 %4, 0
  br i1 %5, label %6, label %9

6:                                                ; preds = %2
  %7 = getelementptr inbounds nuw i8, ptr %0, i64 324
  store i8 1, ptr %7, align 4, !tbaa !30
  %8 = and i8 %1, 7
  br label %25

9:                                                ; preds = %2
  %10 = tail call noundef range(i32 0, 33) i32 @llvm.ctlz.i32(i32 %4, i1 true)
  %11 = xor i32 %10, 31
  %12 = load i8, ptr @_ZN5FFlag20DebugCodegenChaosA64E, align 8, !tbaa !31, !range !35, !noundef !36
  %13 = trunc nuw i8 %12 to i1
  %14 = tail call range(i32 0, 33) i32 @llvm.cttz.i32(i32 %4, i1 true)
  %spec.select = select i1 %13, i32 %14, i32 %11
  %15 = shl nuw i32 1, %spec.select
  %16 = xor i32 %15, -1
  %17 = and i32 %4, %16
  store i32 %17, ptr %3, align 4, !tbaa !21
  %18 = getelementptr inbounds nuw i8, ptr %.0.i, i64 8
  %19 = load i32, ptr %18, align 4, !tbaa !22
  %20 = or i32 %15, %19
  store i32 %20, ptr %18, align 4, !tbaa !22
  %21 = and i8 %1, 7
  %22 = trunc nuw nsw i32 %spec.select to i8
  %23 = shl nuw i8 %22, 3
  %24 = or disjoint i8 %23, %21
  br label %25

25:                                               ; preds = %9, %6
  %.sroa.0.0 = phi i8 [ %8, %6 ], [ %24, %9 ]
  ret i8 %.sroa.0.0
}